target datalayout = "e-m:e-p270:32:32-p271:32:32-p272:64:64-i64:64-i128:128-f80:128-n8:16:32:64-S128"
target triple = "x86_64-pc-linux-gnu"

%struct.redisServer = type { i32, i64, ptr, ptr, ptr, i32, i32, i32, i32, i32, ptr, ptr, ptr, ptr, ptr, i32, i32, i32, i32, i64, i32, i32, i32, i32, ptr, i32, i32, [41 x i8], i32, i64, i32, i32, i32, ptr, ptr, i32, i32, i64, ptr, ptr, ptr, ptr, [2 x i32], i32, i32, i32, i32, i32, i32, [16 x ptr], i32, ptr, ptr, i32, [8 x %struct.connListener], i32, %struct.connListener, ptr, ptr, ptr, ptr, ptr, ptr, ptr, ptr, ptr, ptr, i32, ptr, i32, ptr, [3 x %struct.pause_event], [256 x i8], ptr, i64, i32, i32, [128 x i32], i32, i32, i64, i32, i32, i32, i32, i32, i64, i64, i64, i64, i64, i64, i64, i64, i64, i64, double, i64, i64, i64, i64, i64, i64, i64, i64, i64, i64, i64, i64, i64, i64, i64, i64, i64, i64, i64, i64, i64, double, i64, i64, i64, i64, i64, ptr, i64, i64, i64, %struct.malloc_stats, i64, i64, i64, i64, i64, i64, i64, i64, i64, i64, i64, i64, double, [4 x i64], i64, i64, i64, i64, [128 x i64], [128 x i64], i64, i64, [7 x %struct.anon], i64, i64, i64, i64, i64, i64, [4 x %struct.durationStats], i32, i32, i32, i32, i32, i32, i32, i32, i32, i32, i32, i32, i64, i32, i32, i32, i32, i64, i64, i32, i32, i32, i32, i32, ptr, [3 x %struct.clientBufferLimitsConfig], i32, i32, i32, ptr, i32, i32, i32, i32, i32, i32, ptr, ptr, i32, i32, i64, i64, i64, i64, i64, i32, i32, ptr, i32, i32, i64, i64, i64, i64, i64, i32, i32, i64, i32, i32, i32, i32, i32, i32, i32, i32, ptr, i32, i64, i64, i64, i64, i32, ptr, i32, ptr, i32, i32, i32, i64, i64, i64, i64, i32, i32, i32, i32, i32, i32, ptr, i32, i32, ptr, i32, i32, i32, [2 x i32], i32, %struct.redisOpArray, i32, ptr, i32, ptr, i32, i32, i32, i32, i32, i32, i32, [41 x i8], [41 x i8], i64, i64, i64, i64, i32, i32, ptr, i64, i64, %struct.replDataBuf, i64, i64, i32, i32, i32, i32, i32, i32, i32, i32, i32, i64, ptr, i64, ptr, ptr, ptr, i32, i32, ptr, ptr, i32, i32, i32, i64, i64, i64, i64, ptr, ptr, i32, ptr, i64, i32, i32, i32, i64, i32, i32, i32, i32, ptr, i32, i32, [41 x i8], i64, i32, ptr, i32, i32, i64, i64, i32, i32, i32, i32, i32, i64, [3 x i32], i32, i32, i32, [10 x i32], ptr, ptr, i32, i64, ptr, ptr, i32, i32, i32, i32, i64, i64, i64, i64, i64, i64, i64, i64, i64, i64, i32, i32, i64, i64, i32, i64, i64, i64, i64, i64, ptr, ptr, i32, ptr, i32, i32, i32, i32, i64, i64, ptr, ptr, i32, i32, i32, i32, i32, ptr, ptr, ptr, i32, i32, i32, i32, i32, i32, i32, i64, i32, i32, i64, i32, i32, i32, i32, i32, i32, i32, i64, ptr, ptr, i64, ptr, i32, %struct.aclInfo, i32, i64, i32, i32, i32, %struct.redisTLSContextConfig, ptr, ptr, ptr, ptr, ptr, i64, i32, ptr, i32, i32, i32, i64, i32, ptr }
%struct.connListener = type { [16 x i32], i32, ptr, i32, i32, ptr, ptr }
%struct.pause_event = type { i32, i64 }
%struct.malloc_stats = type { i64, i64, i64, i64, i64, i64, i64, i64, i64, i64, i64 }
%struct.anon = type { i64, i64, [16 x i64], i32 }
%struct.durationStats = type { i64, i64, i64 }
%struct.clientBufferLimitsConfig = type { i64, i64, i64 }
%struct.redisOpArray = type { ptr, i32, i32 }
%struct.replDataBuf = type { ptr, i64, i64, i64, i64 }
%struct.aclInfo = type { i64, i64, i64, i64 }
%struct.redisTLSContextConfig = type { ptr, ptr, ptr, ptr, ptr, ptr, ptr, ptr, ptr, ptr, ptr, ptr, i32, i32, i32, i32 }
%struct.list = type { ptr, ptr, ptr, ptr, ptr, i64 }
%struct.client = type { i64, i64, ptr, i8, i8, i8, i8, i32, ptr, ptr, ptr, ptr, ptr, i64, i64, i32, ptr, i32, i32, ptr, i64, ptr, ptr, ptr, ptr, ptr, i32, i32, i64, ptr, i64, ptr, i64, i64, i64, i32, ptr, i64, i64, i32, i32, i32, i32, i64, i64, ptr, i64, i64, i64, i64, i64, i64, i64, i64, [41 x i8], i32, ptr, i32, i32, i64, %struct.multiState, %struct.blockingState, i64, ptr, ptr, ptr, ptr, ptr, ptr, ptr, ptr, ptr, ptr, ptr, ptr, ptr, ptr, i64, ptr, i64, i32, ptr, ptr, ptr, i64, %struct.listNode, i64, i64, i32, i64, ptr }
%struct.multiState = type { ptr, i32, i32, i32, i64, i32 }
%struct.blockingState = type { i32, i64, i32, ptr, i32, i32, i64, ptr, ptr, i64 }
%struct.listNode = type { ptr, ptr, ptr }
%struct.replBufBlock = type { i32, i64, i64, i64, i64, [0 x i8] }

@.str.1 = private unnamed_addr constant [13 x i8] c"networking.c\00", align 1
@server = external global %struct.redisServer, align 8
@.str.246 = private unnamed_addr constant [44 x i8] c"c->bufpos == 0 && listLength(c->reply) == 0\00", align 1

; Function Attrs: inlinehint nounwind uwtable
define internal i32 @_clientHasPendingRepliesSlave(ptr noundef %0) #4 {
  %2 = alloca i32, align 4
  %3 = alloca ptr, align 8
  %4 = alloca ptr, align 8
  %5 = alloca ptr, align 8
  %6 = alloca i32, align 4
  store ptr %0, ptr %3, align 8, !tbaa !24
  %7 = load ptr, ptr %3, align 8, !tbaa !24
  %8 = getelementptr inbounds nuw %struct.client, ptr %7, i32 0, i32 88
  %9 = load i32, ptr %8, align 8, !tbaa !79
  %10 = icmp eq i32 %9, 0
  br i1 %10, label %11, label %18

11:                                               ; preds = %1
  %12 = load ptr, ptr %3, align 8, !tbaa !24
  %13 = getelementptr inbounds nuw %struct.client, ptr %12, i32 0, i32 29
  %14 = load ptr, ptr %13, align 8, !tbaa !125
  %15 = getelementptr inbounds nuw %struct.list, ptr %14, i32 0, i32 5
  %16 = load i64, ptr %15, align 8, !tbaa !182
  %17 = icmp eq i64 %16, 0
  br label %18

18:                                               ; preds = %11, %1
  %19 = phi i1 [ false, %1 ], [ %17, %11 ]
  %20 = xor i1 %19, true
  %21 = xor i1 %20, true
  %22 = zext i1 %21 to i32
  %23 = sext i32 %22 to i64
  %24 = call i64 @llvm.expect.i64(i64 %23, i64 1)
  %25 = icmp ne i64 %24, 0
  br i1 %25, label %26, label %27

26:                                               ; preds = %18
  br label %29

27:                                               ; preds = %18
  call void @_serverAssert(ptr noundef @.str.246, ptr noundef @.str.1, i32 noundef 1309)
  call void @abort() #17
  unreachable

28:                                               ; No predecessors!
  br label %29

29:                                               ; preds = %28, %26
  %30 = load ptr, ptr %3, align 8, !tbaa !24
  %31 = getelementptr inbounds nuw %struct.client, ptr %30, i32 0, i32 83
  %32 = load ptr, ptr %31, align 8, !tbaa !84
  %33 = icmp eq ptr %32, null
  br i1 %33, label %34, label %35

34:                                               ; preds = %29
  store i32 0, ptr %2, align 4
  br label %58

35:                                               ; preds = %29
  call void @llvm.lifetime.start.p0(i64 8, ptr %4) #16
  %36 = load ptr, ptr getelementptr inbounds nuw (%struct.redisServer, ptr @server, i32 0, i32 293), align 8, !tbaa !208
  %37 = getelementptr inbounds nuw %struct.list, ptr %36, i32 0, i32 1
  %38 = load ptr, ptr %37, align 8, !tbaa !52
  store ptr %38, ptr %4, align 8, !tbaa !167
  call void @llvm.lifetime.start.p0(i64 8, ptr %5) #16
  %39 = load ptr, ptr %4, align 8, !tbaa !167
  %40 = getelementptr inbounds nuw %struct.listNode, ptr %39, i32 0, i32 2
  %41 = load ptr, ptr %40, align 8, !tbaa !168
  store ptr %41, ptr %5, align 8, !tbaa !209
  %42 = load ptr, ptr %4, align 8, !tbaa !167
  %43 = load ptr, ptr %3, align 8, !tbaa !24
  %44 = getelementptr inbounds nuw %struct.client, ptr %43, i32 0, i32 83
  %45 = load ptr, ptr %44, align 8, !tbaa !84
  %46 = icmp eq ptr %42, %45
  br i1 %46, label %47, label %56

47:                                               ; preds = %35
  %48 = load ptr, ptr %3, align 8, !tbaa !24
  %49 = getelementptr inbounds nuw %struct.client, ptr %48, i32 0, i32 84
  %50 = load i64, ptr %49, align 8, !tbaa !85
  %51 = load ptr, ptr %5, align 8, !tbaa !209
  %52 = getelementptr inbounds nuw %struct.replBufBlock, ptr %51, i32 0, i32 4
  %53 = load i64, ptr %52, align 8, !tbaa !20
  %54 = icmp eq i64 %50, %53
  br i1 %54, label %55, label %56

55:                                               ; preds = %47
  store i32 0, ptr %2, align 4
  store i32 1, ptr %6, align 4
  br label %57

56:                                               ; preds = %47, %35
  store i32 1, ptr %2, align 4
  store i32 1, ptr %6, align 4
  br label %57

57:                                               ; preds = %56, %55
  call void @llvm.lifetime.end.p0(i64 8, ptr %5) #16
  call void @llvm.lifetime.end.p0(i64 8, ptr %4) #16
  br label %58

58:                                               ; preds = %57, %34
  %59 = load i32, ptr %2, align 4
  ret i32 %59
}