; Function Attrs: inlinehint nounwind uwtable
define internal fastcc range(i32 0, 2) i32 @_clientHasPendingRepliesSlave(ptr noundef readonly captures(none) %0) unnamed_addr #13 {
  %2 = getelementptr inbounds nuw i8, ptr %0, i64 776
  %3 = load i32, ptr %2, align 8, !tbaa !76
  %4 = icmp eq i32 %3, 0
  br i1 %4, label %5, label %.critedge, !prof !5

5:                                                ; preds = %1
  %6 = getelementptr inbounds nuw i8, ptr %0, i64 184
  %7 = load ptr, ptr %6, align 8, !tbaa !96
  %8 = getelementptr inbounds nuw i8, ptr %7, i64 40
  %9 = load i64, ptr %8, align 8, !tbaa !122
  %10 = icmp eq i64 %9, 0
  br i1 %10, label %11, label %.critedge, !prof !5

.critedge:                                        ; preds = %1, %5
  tail call void @_serverAssert(ptr noundef nonnull @.str.246, ptr noundef nonnull @.str.1, i32 noundef 1309) #26
  tail call void @abort() #27
  unreachable

11:                                               ; preds = %5
  %12 = getelementptr inbounds nuw i8, ptr %0, i64 720
  %13 = load ptr, ptr %12, align 8, !tbaa !161
  %14 = icmp eq ptr %13, null
  br i1 %14, label %29, label %15

15:                                               ; preds = %11
  %16 = load ptr, ptr getelementptr inbounds nuw (i8, ptr @server, i64 7232), align 8, !tbaa !162
  %17 = getelementptr inbounds nuw i8, ptr %16, i64 8
  %18 = load ptr, ptr %17, align 8, !tbaa !46
  %19 = icmp eq ptr %18, %13
  br i1 %19, label %20, label %28

20:                                               ; preds = %15
  %21 = getelementptr inbounds nuw i8, ptr %18, i64 16
  %22 = load ptr, ptr %21, align 8, !tbaa !123
  %23 = getelementptr inbounds nuw i8, ptr %0, i64 728
  %24 = load i64, ptr %23, align 8, !tbaa !175
  %25 = getelementptr inbounds nuw i8, ptr %22, i64 32
  %26 = load i64, ptr %25, align 8, !tbaa !16
  %27 = icmp eq i64 %24, %26
  br i1 %27, label %29, label %28

28:                                               ; preds = %20, %15
  br label %29

29:                                               ; preds = %28, %20, %11
  %.0 = phi i32 [ 0, %11 ], [ 1, %28 ], [ 0, %20 ]
  ret i32 %.0
}